target datalayout = "e-m:e-p270:32:32-p271:32:32-p272:64:64-i64:64-i128:128-f80:128-n8:16:32:64-S128"
target triple = "x86_64-unknown-linux-gnu"

%struct.iovec = type { ptr, i64 }
%struct.VirtioBlkHandler = type { ptr, ptr, i32, i8 }
%struct.virtio_blk_discard_write_zeroes = type { i64, i32, i32 }

@.str.3 = private unnamed_addr constant [31 x i8] c"Invalid size %zd, expected %zu\00", align 1

; Function Attrs: nounwind sspstrong uwtable
define internal zeroext i1 @virtio_blk_sect_range_ok(ptr noundef %blk, i32 noundef %block_size, i64 noundef %sector, i64 noundef %size) #0 {
entry:
  %retval = alloca i1, align 1
  %blk.addr = alloca ptr, align 8
  %block_size.addr = alloca i32, align 4
  %sector.addr = alloca i64, align 8
  %size.addr = alloca i64, align 8
  %nb_sectors = alloca i64, align 8
  %total_sectors = alloca i64, align 8
  store ptr %blk, ptr %blk.addr, align 8
  store i32 %block_size, ptr %block_size.addr, align 4
  store i64 %sector, ptr %sector.addr, align 8
  store i64 %size, ptr %size.addr, align 8
  %0 = load i64, ptr %size.addr, align 8
  %rem = urem i64 %0, 512
  %tobool = icmp ne i64 %rem, 0
  br i1 %tobool, label %if.then, label %if.end

if.then:                                          ; preds = %entry
  store i1 false, ptr %retval, align 1
  br label %return

if.end:                                           ; preds = %entry
  %1 = load i64, ptr %size.addr, align 8
  %shr = lshr i64 %1, 9
  store i64 %shr, ptr %nb_sectors, align 8
  %2 = load i64, ptr %nb_sectors, align 8
  %cmp = icmp ugt i64 %2, 4194303
  br i1 %cmp, label %if.then1, label %if.end2

if.then1:                                         ; preds = %if.end
  store i1 false, ptr %retval, align 1
  br label %return

if.end2:                                          ; preds = %if.end
  %3 = load i64, ptr %sector.addr, align 8
  %shl = shl i64 %3, 9
  %4 = load i32, ptr %block_size.addr, align 4
  %conv = zext i32 %4 to i64
  %rem3 = urem i64 %shl, %conv
  %tobool4 = icmp ne i64 %rem3, 0
  br i1 %tobool4, label %if.then5, label %if.end6

if.then5:                                         ; preds = %if.end2
  store i1 false, ptr %retval, align 1
  br label %return

if.end6:                                          ; preds = %if.end2
  %5 = load ptr, ptr %blk.addr, align 8
  call void @blk_co_get_geometry(ptr noundef %5, ptr noundef %total_sectors)
  %6 = load i64, ptr %sector.addr, align 8
  %7 = load i64, ptr %total_sectors, align 8
  %cmp7 = icmp ugt i64 %6, %7
  br i1 %cmp7, label %if.then11, label %lor.lhs.false

lor.lhs.false:                                    ; preds = %if.end6
  %8 = load i64, ptr %nb_sectors, align 8
  %9 = load i64, ptr %total_sectors, align 8
  %10 = load i64, ptr %sector.addr, align 8
  %sub = sub i64 %9, %10
  %cmp9 = icmp ugt i64 %8, %sub
  br i1 %cmp9, label %if.then11, label %if.end12

if.then11:                                        ; preds = %lor.lhs.false, %if.end6
  store i1 false, ptr %retval, align 1
  br label %return

if.end12:                                         ; preds = %lor.lhs.false
  store i1 true, ptr %retval, align 1
  br label %return

return:                                           ; preds = %if.end12, %if.then11, %if.then5, %if.then1, %if.then
  %11 = load i1, ptr %retval, align 1
  ret i1 %11
}

; Function Attrs: nounwind sspstrong uwtable
define internal i32 @le32_to_cpu(i32 noundef %v) #0 {
entry:
  %v.addr = alloca i32, align 4
  store i32 %v, ptr %v.addr, align 4
  %0 = load i32, ptr %v.addr, align 4
  ret i32 %0
}

; Function Attrs: nounwind sspstrong uwtable
define internal i64 @le64_to_cpu(i64 noundef %v) #0 {
entry:
  %v.addr = alloca i64, align 8
  store i64 %v, ptr %v.addr, align 8
  %0 = load i64, ptr %v.addr, align 8
  ret i64 %0
}

; Function Attrs: nounwind sspstrong uwtable
define internal i64 @iov_to_buf(ptr noundef %iov, i32 noundef %iov_cnt, i64 noundef %offset, ptr noundef %buf, i64 noundef %bytes) #0 {
entry:
  %retval = alloca i64, align 8
  %iov.addr = alloca ptr, align 8
  %iov_cnt.addr = alloca i32, align 4
  %offset.addr = alloca i64, align 8
  %buf.addr = alloca ptr, align 8
  %bytes.addr = alloca i64, align 8
  store ptr %iov, ptr %iov.addr, align 8
  store i32 %iov_cnt, ptr %iov_cnt.addr, align 4
  store i64 %offset, ptr %offset.addr, align 8
  store ptr %buf, ptr %buf.addr, align 8
  store i64 %bytes, ptr %bytes.addr, align 8
  %0 = load i64, ptr %bytes.addr, align 8
  %1 = call i1 @llvm.is.constant.i64(i64 %0)
  br i1 %1, label %land.lhs.true, label %if.else

land.lhs.true:                                    ; preds = %entry
  %2 = load i32, ptr %iov_cnt.addr, align 4
  %tobool = icmp ne i32 %2, 0
  br i1 %tobool, label %land.lhs.true1, label %if.else

land.lhs.true1:                                   ; preds = %land.lhs.true
  %3 = load i64, ptr %offset.addr, align 8
  %4 = load ptr, ptr %iov.addr, align 8
  %arrayidx = getelementptr %struct.iovec, ptr %4, i64 0
  %iov_len = getelementptr inbounds %struct.iovec, ptr %arrayidx, i32 0, i32 1
  %5 = load i64, ptr %iov_len, align 8
  %cmp = icmp ule i64 %3, %5
  br i1 %cmp, label %land.lhs.true2, label %if.else

land.lhs.true2:                                   ; preds = %land.lhs.true1
  %6 = load i64, ptr %bytes.addr, align 8
  %7 = load ptr, ptr %iov.addr, align 8
  %arrayidx3 = getelementptr %struct.iovec, ptr %7, i64 0
  %iov_len4 = getelementptr inbounds %struct.iovec, ptr %arrayidx3, i32 0, i32 1
  %8 = load i64, ptr %iov_len4, align 8
  %9 = load i64, ptr %offset.addr, align 8
  %sub = sub i64 %8, %9
  %cmp5 = icmp ule i64 %6, %sub
  br i1 %cmp5, label %if.then, label %if.else

if.then:                                          ; preds = %land.lhs.true2
  %10 = load ptr, ptr %buf.addr, align 8
  %11 = load ptr, ptr %iov.addr, align 8
  %arrayidx6 = getelementptr %struct.iovec, ptr %11, i64 0
  %iov_base = getelementptr inbounds %struct.iovec, ptr %arrayidx6, i32 0, i32 0
  %12 = load ptr, ptr %iov_base, align 8
  %13 = load i64, ptr %offset.addr, align 8
  %add.ptr = getelementptr i8, ptr %12, i64 %13
  %14 = load i64, ptr %bytes.addr, align 8
  call void @llvm.memcpy.p0.p0.i64(ptr align 1 %10, ptr align 1 %add.ptr, i64 %14, i1 false)
  %15 = load i64, ptr %bytes.addr, align 8
  store i64 %15, ptr %retval, align 8
  br label %return

if.else:                                          ; preds = %land.lhs.true2, %land.lhs.true1, %land.lhs.true, %entry
  %16 = load ptr, ptr %iov.addr, align 8
  %17 = load i32, ptr %iov_cnt.addr, align 4
  %18 = load i64, ptr %offset.addr, align 8
  %19 = load ptr, ptr %buf.addr, align 8
  %20 = load i64, ptr %bytes.addr, align 8
  %call = call i64 @iov_to_buf_full(ptr noundef %16, i32 noundef %17, i64 noundef %18, ptr noundef %19, i64 noundef %20)
  store i64 %call, ptr %retval, align 8
  br label %return

return:                                           ; preds = %if.else, %if.then
  %21 = load i64, ptr %retval, align 8
  ret i64 %21
}

; Function Attrs: nounwind sspstrong uwtable
define internal i32 @virtio_blk_discard_write_zeroes(ptr noundef %handler, ptr noundef %iov, i32 noundef %iovcnt, i32 noundef %type) #0 {
entry:
  %retval = alloca i32, align 4
  %handler.addr = alloca ptr, align 8
  %iov.addr = alloca ptr, align 8
  %iovcnt.addr = alloca i32, align 4
  %type.addr = alloca i32, align 4
  %blk = alloca ptr, align 8
  %desc = alloca %struct.virtio_blk_discard_write_zeroes, align 8
  %size = alloca i64, align 8
  %sector = alloca i64, align 8
  %num_sectors = alloca i32, align 4
  %max_sectors = alloca i32, align 4
  %flags = alloca i32, align 4
  %bytes = alloca i32, align 4
  %blk_flags = alloca i32, align 4
  store ptr %handler, ptr %handler.addr, align 8
  store ptr %iov, ptr %iov.addr, align 8
  store i32 %iovcnt, ptr %iovcnt.addr, align 4
  store i32 %type, ptr %type.addr, align 4
  %0 = load ptr, ptr %handler.addr, align 8
  %blk1 = getelementptr inbounds %struct.VirtioBlkHandler, ptr %0, i32 0, i32 0
  %1 = load ptr, ptr %blk1, align 8
  store ptr %1, ptr %blk, align 8
  %2 = load ptr, ptr %iov.addr, align 8
  %3 = load i32, ptr %iovcnt.addr, align 4
  %call = call i64 @iov_size(ptr noundef %2, i32 noundef %3)
  %cmp = icmp ugt i64 %call, 16
  %lnot = xor i1 %cmp, true
  %lnot2 = xor i1 %lnot, true
  %lnot.ext = zext i1 %lnot2 to i32
  %conv = sext i32 %lnot.ext to i64
  %tobool = icmp ne i64 %conv, 0
  br i1 %tobool, label %if.then, label %if.end

if.then:                                          ; preds = %entry
  store i32 2, ptr %retval, align 4
  br label %return

if.end:                                           ; preds = %entry
  %4 = load ptr, ptr %iov.addr, align 8
  %5 = load i32, ptr %iovcnt.addr, align 4
  %call3 = call i64 @iov_to_buf(ptr noundef %4, i32 noundef %5, i64 noundef 0, ptr noundef %desc, i64 noundef 16)
  store i64 %call3, ptr %size, align 8
  %6 = load i64, ptr %size, align 8
  %cmp4 = icmp ne i64 %6, 16
  %lnot6 = xor i1 %cmp4, true
  %lnot8 = xor i1 %lnot6, true
  %lnot.ext9 = zext i1 %lnot8 to i32
  %conv10 = sext i32 %lnot.ext9 to i64
  %tobool11 = icmp ne i64 %conv10, 0
  br i1 %tobool11, label %if.then12, label %if.end13

if.then12:                                        ; preds = %if.end
  %7 = load i64, ptr %size, align 8
  call void (ptr, ...) @error_report(ptr noundef @.str.3, i64 noundef %7, i64 noundef 16)
  store i32 1, ptr %retval, align 4
  br label %return

if.end13:                                         ; preds = %if.end
  %sector14 = getelementptr inbounds %struct.virtio_blk_discard_write_zeroes, ptr %desc, i32 0, i32 0
  %8 = load i64, ptr %sector14, align 8
  %call15 = call i64 @le64_to_cpu(i64 noundef %8)
  store i64 %call15, ptr %sector, align 8
  %num_sectors16 = getelementptr inbounds %struct.virtio_blk_discard_write_zeroes, ptr %desc, i32 0, i32 1
  %9 = load i32, ptr %num_sectors16, align 8
  %call17 = call i32 @le32_to_cpu(i32 noundef %9)
  store i32 %call17, ptr %num_sectors, align 4
  %flags18 = getelementptr inbounds %struct.virtio_blk_discard_write_zeroes, ptr %desc, i32 0, i32 2
  %10 = load i32, ptr %flags18, align 4
  %call19 = call i32 @le32_to_cpu(i32 noundef %10)
  store i32 %call19, ptr %flags, align 4
  %11 = load i32, ptr %type.addr, align 4
  %cmp20 = icmp eq i32 %11, 13
  %cond = select i1 %cmp20, i32 32768, i32 32768
  store i32 %cond, ptr %max_sectors, align 4
  %12 = load i32, ptr %num_sectors, align 4
  %13 = load i32, ptr %max_sectors, align 4
  %cmp22 = icmp ugt i32 %12, %13
  %lnot24 = xor i1 %cmp22, true
  %lnot26 = xor i1 %lnot24, true
  %lnot.ext27 = zext i1 %lnot26 to i32
  %conv28 = sext i32 %lnot.ext27 to i64
  %tobool29 = icmp ne i64 %conv28, 0
  br i1 %tobool29, label %if.then30, label %if.end31

if.then30:                                        ; preds = %if.end13
  store i32 1, ptr %retval, align 4
  br label %return

if.end31:                                         ; preds = %if.end13
  %14 = load i32, ptr %num_sectors, align 4
  %shl = shl i32 %14, 9
  store i32 %shl, ptr %bytes, align 4
  %15 = load ptr, ptr %blk, align 8
  %16 = load ptr, ptr %handler.addr, align 8
  %logical_block_size = getelementptr inbounds %struct.VirtioBlkHandler, ptr %16, i32 0, i32 2
  %17 = load i32, ptr %logical_block_size, align 8
  %18 = load i64, ptr %sector, align 8
  %19 = load i32, ptr %bytes, align 4
  %conv32 = sext i32 %19 to i64
  %call33 = call zeroext i1 @virtio_blk_sect_range_ok(ptr noundef %15, i32 noundef %17, i64 noundef %18, i64 noundef %conv32)
  %lnot34 = xor i1 %call33, true
  %lnot36 = xor i1 %lnot34, true
  %lnot38 = xor i1 %lnot36, true
  %lnot.ext39 = zext i1 %lnot38 to i32
  %conv40 = sext i32 %lnot.ext39 to i64
  %tobool41 = icmp ne i64 %conv40, 0
  br i1 %tobool41, label %if.then42, label %if.end43

if.then42:                                        ; preds = %if.end31
  store i32 1, ptr %retval, align 4
  br label %return

if.end43:                                         ; preds = %if.end31
  %20 = load i32, ptr %flags, align 4
  %and = and i32 %20, -2
  %tobool44 = icmp ne i32 %and, 0
  %lnot45 = xor i1 %tobool44, true
  %lnot47 = xor i1 %lnot45, true
  %lnot.ext48 = zext i1 %lnot47 to i32
  %conv49 = sext i32 %lnot.ext48 to i64
  %tobool50 = icmp ne i64 %conv49, 0
  br i1 %tobool50, label %if.then51, label %if.end52

if.then51:                                        ; preds = %if.end43
  store i32 2, ptr %retval, align 4
  br label %return

if.end52:                                         ; preds = %if.end43
  %21 = load i32, ptr %type.addr, align 4
  %cmp53 = icmp eq i32 %21, 13
  br i1 %cmp53, label %if.then55, label %if.else

if.then55:                                        ; preds = %if.end52
  store i32 0, ptr %blk_flags, align 4
  %22 = load i32, ptr %flags, align 4
  %and56 = and i32 %22, 1
  %tobool57 = icmp ne i32 %and56, 0
  br i1 %tobool57, label %if.then58, label %if.end59

if.then58:                                        ; preds = %if.then55
  %23 = load i32, ptr %blk_flags, align 4
  %or = or i32 %23, 4
  store i32 %or, ptr %blk_flags, align 4
  br label %if.end59

if.end59:                                         ; preds = %if.then58, %if.then55
  %24 = load ptr, ptr %blk, align 8
  %25 = load i64, ptr %sector, align 8
  %shl60 = shl i64 %25, 9
  %26 = load i32, ptr %bytes, align 4
  %conv61 = sext i32 %26 to i64
  %27 = load i32, ptr %blk_flags, align 4
  %call62 = call i32 @blk_co_pwrite_zeroes(ptr noundef %24, i64 noundef %shl60, i64 noundef %conv61, i32 noundef %27)
  %cmp63 = icmp eq i32 %call62, 0
  br i1 %cmp63, label %if.then65, label %if.end66

if.then65:                                        ; preds = %if.end59
  store i32 0, ptr %retval, align 4
  br label %return

if.end66:                                         ; preds = %if.end59
  br label %if.end88

if.else:                                          ; preds = %if.end52
  %28 = load i32, ptr %type.addr, align 4
  %cmp67 = icmp eq i32 %28, 11
  br i1 %cmp67, label %if.then69, label %if.end87

if.then69:                                        ; preds = %if.else
  %29 = load i32, ptr %flags, align 4
  %and70 = and i32 %29, 1
  %tobool71 = icmp ne i32 %and70, 0
  %lnot72 = xor i1 %tobool71, true
  %lnot74 = xor i1 %lnot72, true
  %lnot.ext75 = zext i1 %lnot74 to i32
  %conv76 = sext i32 %lnot.ext75 to i64
  %tobool77 = icmp ne i64 %conv76, 0
  br i1 %tobool77, label %if.then78, label %if.end79

if.then78:                                        ; preds = %if.then69
  store i32 2, ptr %retval, align 4
  br label %return

if.end79:                                         ; preds = %if.then69
  %30 = load ptr, ptr %blk, align 8
  %31 = load i64, ptr %sector, align 8
  %shl80 = shl i64 %31, 9
  %32 = load i32, ptr %bytes, align 4
  %conv81 = sext i32 %32 to i64
  %call82 = call i32 @blk_co_pdiscard(ptr noundef %30, i64 noundef %shl80, i64 noundef %conv81)
  %cmp83 = icmp eq i32 %call82, 0
  br i1 %cmp83, label %if.then85, label %if.end86

if.then85:                                        ; preds = %if.end79
  store i32 0, ptr %retval, align 4
  br label %return

if.end86:                                         ; preds = %if.end79
  br label %if.end87

if.end87:                                         ; preds = %if.end86, %if.else
  br label %if.end88

if.end88:                                         ; preds = %if.end87, %if.end66
  store i32 1, ptr %retval, align 4
  br label %return

return:                                           ; preds = %if.end88, %if.then85, %if.then78, %if.then65, %if.then51, %if.then42, %if.then30, %if.then12, %if.then
  %33 = load i32, ptr %retval, align 4
  ret i32 %33
}