; Function Attrs: nounwind sspstrong uwtable
define internal range(i32 0, 3) i32 @virtio_blk_discard_write_zeroes(ptr noundef readonly captures(none) %handler, ptr noundef %iov, i32 noundef %iovcnt, i32 noundef %type) #0 {
entry:
  %total_sectors.i = alloca i64, align 8
  %desc = alloca %struct.virtio_blk_discard_write_zeroes, align 8
  %0 = load ptr, ptr %handler, align 8
  %call = tail call i64 @iov_size(ptr noundef %iov, i32 noundef %iovcnt) #6
  %cmp = icmp ugt i64 %call, 16
  br i1 %cmp, label %return, label %if.end

if.end:                                           ; preds = %entry
  %tobool.not.i = icmp eq i32 %iovcnt, 0
  br i1 %tobool.not.i, label %iov_to_buf.exit, label %land.lhs.true2.i

land.lhs.true2.i:                                 ; preds = %if.end
  %iov_len.i = getelementptr inbounds nuw i8, ptr %iov, i64 8
  %1 = load i64, ptr %iov_len.i, align 8
  %cmp5.i = icmp ugt i64 %1, 15
  br i1 %cmp5.i, label %iov_to_buf.exit.thread, label %iov_to_buf.exit

iov_to_buf.exit.thread:                           ; preds = %land.lhs.true2.i
  %2 = load ptr, ptr %iov, align 8
  call void @llvm.memcpy.p0.p0.i64(ptr noundef nonnull align 8 dereferenceable(16) %desc, ptr noundef nonnull align 1 dereferenceable(16) %2, i64 16, i1 false)
  br label %if.end13

iov_to_buf.exit:                                  ; preds = %if.end, %land.lhs.true2.i
  %call.i = call i64 @iov_to_buf_full(ptr noundef %iov, i32 noundef %iovcnt, i64 noundef 0, ptr noundef nonnull %desc, i64 noundef 16) #6
  %cmp4.not = icmp eq i64 %call.i, 16
  br i1 %cmp4.not, label %if.end13, label %if.then12

if.then12:                                        ; preds = %iov_to_buf.exit
  call void (ptr, ...) @error_report(ptr noundef nonnull @.str.3, i64 noundef %call.i, i64 noundef 16) #6
  br label %return

if.end13:                                         ; preds = %iov_to_buf.exit.thread, %iov_to_buf.exit
  %3 = load i64, ptr %desc, align 8
  %num_sectors16 = getelementptr inbounds nuw i8, ptr %desc, i64 8
  %4 = load i32, ptr %num_sectors16, align 8
  %flags18 = getelementptr inbounds nuw i8, ptr %desc, i64 12
  %5 = load i32, ptr %flags18, align 4
  %cmp22 = icmp ugt i32 %4, 32768
  br i1 %cmp22, label %return, label %if.end31

if.end31:                                         ; preds = %if.end13
  %shl = shl nuw nsw i32 %4, 9
  %logical_block_size = getelementptr inbounds nuw i8, ptr %handler, i64 16
  %6 = load i32, ptr %logical_block_size, align 8
  %conv32 = zext nneg i32 %shl to i64
  call void @llvm.lifetime.start.p0(i64 8, ptr nonnull %total_sectors.i)
  %shl.i = shl i64 %3, 9
  %conv.i = zext i32 %6 to i64
  %rem3.i = urem i64 %shl.i, %conv.i
  %tobool4.not.i = icmp eq i64 %rem3.i, 0
  br i1 %tobool4.not.i, label %virtio_blk_sect_range_ok.exit, label %virtio_blk_sect_range_ok.exit.thread

virtio_blk_sect_range_ok.exit.thread:             ; preds = %if.end31
  call void @llvm.lifetime.end.p0(i64 8, ptr nonnull %total_sectors.i)
  br label %return

virtio_blk_sect_range_ok.exit:                    ; preds = %if.end31
  %shr.i = lshr exact i64 %conv32, 9
  call void @blk_co_get_geometry(ptr noundef %0, ptr noundef nonnull %total_sectors.i) #6
  %7 = load i64, ptr %total_sectors.i, align 8
  %cmp7.i = icmp ule i64 %3, %7
  %sub.i = sub nuw i64 %7, %3
  %cmp9.i = icmp ule i64 %shr.i, %sub.i
  %or.cond.not.i = select i1 %cmp7.i, i1 %cmp9.i, i1 false
  call void @llvm.lifetime.end.p0(i64 8, ptr nonnull %total_sectors.i)
  br i1 %or.cond.not.i, label %if.end43, label %return

if.end43:                                         ; preds = %virtio_blk_sect_range_ok.exit
  %tobool44.not = icmp ult i32 %5, 2
  br i1 %tobool44.not, label %if.end52, label %return

if.end52:                                         ; preds = %if.end43
  switch i32 %type, label %if.end88 [
    i32 13, label %if.then55
    i32 11, label %if.then69
  ]

if.then55:                                        ; preds = %if.end52
  %tobool57.not = icmp eq i32 %5, 0
  %spec.select = select i1 %tobool57.not, i32 0, i32 4
  %call62 = call i32 @blk_co_pwrite_zeroes(ptr noundef %0, i64 noundef %shl.i, i64 noundef %conv32, i32 noundef %spec.select) #6
  %cmp63 = icmp eq i32 %call62, 0
  br i1 %cmp63, label %return, label %if.end88

if.then69:                                        ; preds = %if.end52
  %tobool71.not = icmp eq i32 %5, 0
  br i1 %tobool71.not, label %if.end79, label %return

if.end79:                                         ; preds = %if.then69
  %call82 = call i32 @blk_co_pdiscard(ptr noundef %0, i64 noundef %shl.i, i64 noundef %conv32) #6
  %cmp83 = icmp eq i32 %call82, 0
  br i1 %cmp83, label %return, label %if.end88

if.end88:                                         ; preds = %if.end52, %if.end79, %if.then55
  br label %return

return:                                           ; preds = %virtio_blk_sect_range_ok.exit.thread, %if.end79, %if.then69, %if.then55, %if.end43, %virtio_blk_sect_range_ok.exit, %if.end13, %entry, %if.end88, %if.then12
  %retval.0 = phi i32 [ 1, %if.then12 ], [ 1, %if.end88 ], [ 2, %entry ], [ 1, %if.end13 ], [ 1, %virtio_blk_sect_range_ok.exit ], [ 2, %if.end43 ], [ 0, %if.then55 ], [ 2, %if.then69 ], [ 0, %if.end79 ], [ 1, %virtio_blk_sect_range_ok.exit.thread ]
  ret i32 %retval.0
}